Certificate:
    Data:
        Version: 3 (0x2)
        Serial Number: 4097 (0x1001)
        Signature Algorithm: md5WithRSAEncryption
        Issuer: C=US, ST=Utah, L=SLC, O=Branden Rocks LLC, OU=Branden, CN=branden
        Validity
            Not Before: Mar 23 16:30:13 2023 GMT
            Not After : Mar 22 16:30:13 2024 GMT
        Subject: C=US, ST=Utah, O=Branden Rocks LLC, OU=Branden, CN=clientMan
        Subject Public Key Info:
            Public Key Algorithm: rsaEncryption
                RSA Public-Key: (4096 bit)
                Modulus:
                    00:d9:4b:6a:96:f7:80:99:d7:59:05:d6:f2:f1:ee:
                    5c:4a:8f:fd:cf:95:4b:e5:cb:9c:ed:1c:75:bf:24:
                    cc:1a:7e:30:4a:3d:79:d0:c1:4c:75:b1:bf:9a:c1:
                    6e:d7:07:ca:36:40:70:23:08:14:56:f8:ba:b1:f0:
                    df:ec:00:2e:91:75:24:e7:07:c3:2e:0e:7a:ec:aa:
                    58:e2:1d:42:85:2c:53:5f:7c:73:2f:12:68:aa:c3:
                    21:72:bb:92:9a:d9:f8:77:8b:04:ca:0d:2a:0d:8e:
                    7d:f4:4f:18:58:34:38:07:d1:ec:19:60:ef:b4:52:
                    eb:02:05:ce:63:a5:5f:54:14:f1:0c:2b:c0:d0:a5:
                    81:cf:6e:b4:90:33:13:a3:c0:e6:6f:33:2b:4c:09:
                    13:22:d7:23:a4:de:71:ec:f0:59:28:c4:65:66:97:
                    82:eb:3e:10:9a:b6:25:37:16:ef:7f:27:71:c8:1d:
                    d7:0d:b5:b3:a0:c7:b2:73:64:72:f2:13:45:3a:14:
                    e0:51:8f:dd:67:22:e6:e3:b4:60:c0:7d:85:01:7a:
                    d8:9c:d7:aa:a5:d5:3f:7b:ca:83:e5:29:5b:d3:43:
                    aa:0f:ef:15:a1:90:e7:89:54:dc:1f:a5:13:d0:88:
                    18:09:b2:ab:b2:b5:aa:5f:d6:31:cc:18:83:96:d5:
                    17:cb:30:f0:22:a1:56:45:68:80:0a:c9:5e:27:9f:
                    74:3e:65:6b:79:a7:2b:ca:1d:72:54:f4:91:af:1f:
                    4e:b9:0d:89:46:40:0d:f1:f1:ab:6b:32:05:fc:b3:
                    03:d0:5e:70:cc:98:38:bc:be:5b:e5:6e:7b:99:c1:
                    33:bf:66:ea:c6:15:79:09:70:ae:6c:8a:40:96:f9:
                    80:e0:d6:fc:7e:e8:99:27:dd:07:0c:bd:e1:e3:c4:
                    07:3e:48:46:fb:e6:df:33:17:b1:63:70:50:e9:0a:
                    72:e6:70:a0:eb:61:ba:da:dd:b2:9c:c2:b7:0e:45:
                    9b:63:87:82:c0:76:c5:ef:38:0c:04:e4:ad:e9:f5:
                    c4:8d:ef:12:82:d8:2b:c1:6d:f9:24:60:19:c1:e4:
                    41:8d:31:25:55:ff:f9:74:e9:26:24:80:38:01:0a:
                    1d:20:c7:17:42:b0:69:d3:fd:22:b3:33:2b:69:ab:
                    2c:9c:32:26:3b:9a:21:9e:fd:94:60:1c:1c:b5:6b:
                    5d:5a:42:ad:b1:10:1c:22:11:f0:d0:b2:cb:95:e5:
                    d4:73:26:84:9c:f7:6a:f6:91:88:97:f0:b9:07:13:
                    6b:ca:1e:3b:eb:c4:24:57:d1:12:18:b5:fc:62:4a:
                    ff:e6:fc:59:1f:f4:0c:a1:13:69:1e:8e:74:02:50:
                    59:18:c7
                Exponent: 65537 (0x10001)
        X509v3 extensions:
            X509v3 Basic Constraints: 
                CA:FALSE
            Netscape Comment: 
                OpenSSL Generated Certificate
            X509v3 Subject Key Identifier: 
                42:4A:4C:2D:D3:9D:81:13:59:6B:19:FC:AF:81:20:1B:E8:86:5A:BF
            X509v3 Authority Key Identifier: 
                keyid:8F:38:E9:38:13:55:F5:45:B6:B0:2F:3D:52:73:EA:19:0A:8D:49:7E
                DirName:/C=US/ST=Utah/L=SLC/O=Branden Rocks LLC/OU=Branden/CN=branden
                serial:0E:05:94:93:F4:99:7F:85:12:57:DB:C8:73:FD:F3:A9:E3:9E:DF:1A

    Signature Algorithm: md5WithRSAEncryption
         33:f4:63:d6:e6:59:60:40:b5:f4:59:ae:f6:c6:4e:00:02:d5:
         e8:00:7d:2f:c7:e8:6f:55:c8:81:4c:da:1f:8d:70:ff:43:42:
         c1:ff:a2:6f:e3:fe:0b:ad:8b:4e:51:50:25:3e:b8:06:93:51:
         98:77:f7:14:67:57:88:35:2e:14:e8:50:d7:73:5f:60:b8:93:
         f6:2b:20:ca:30:15:03:fd:18:d6:69:89:af:e9:cd:01:67:71:
         bb:fd:9e:b6:2b:22:a7:0e:8e:d5:e2:c0:8a:78:a3:b8:83:fa:
         ec:e5:2a:3a:16:40:5d:00:1f:e4:0e:48:b1:b8:42:3e:9f:90:
         b1:04:8d:c7:a3:89:c2:2b:7f:b5:66:10:d6:57:64:ed:8b:2e:
         d5:68:4b:93:2d:60:95:0e:1c:2b:e1:fd:56:23:1c:ec:0b:04:
         4b:dd:34:7d:c2:b0:9f:ff:02:4c:54:6f:01:c6:8a:58:f2:ca:
         87:e5:77:b2:31:16:00:a4:e0:5e:7e:de:fa:23:6e:83:5f:07:
         c7:60:7a:98:9d:0e:4f:95:4c:e8:b8:5e:23:ea:d3:ac:05:10:
         18:a9:ad:96:79:20:b2:34:00:e7:13:30:f2:d3:de:14:15:2d:
         95:b4:c4:5c:7c:74:1e:b6:88:ed:33:6f:9e:20:1f:df:d9:b5:
         1e:df:2c:34:c8:2e:2a:22:9b:5f:6d:53:b6:81:fc:d3:4a:03:
         29:bc:c7:ef:08:5f:7d:47:03:25:ee:36:79:79:de:02:e3:4b:
         be:bf:69:67:36:df:d7:94:d8:23:36:e7:7c:84:e6:5a:7b:6a:
         e0:28:40:c0:ad:24:cb:76:4a:cd:0a:4f:f5:e3:03:78:c7:88:
         03:08:ce:ef:08:e1:a4:0c:2b:fd:46:5e:38:40:31:c2:94:43:
         e3:90:55:2b:13:2d:dc:ac:d8:3d:51:44:f5:cf:81:b0:e7:0c:
         31:74:8f:e8:fb:b2:ad:2c:e0:1c:27:1e:17:14:e2:21:6b:06:
         05:64:69:56:db:7d:69:d9:68:be:be:89:b1:cb:ef:03:b4:b9:
         1f:bc:08:28:5d:78:65:9a:84:b6:87:79:85:c5:af:d6:6d:99:
         ff:76:fa:d3:c4:94:e8:42:cf:23:3b:1b:35:f9:d7:92:c0:36:
         51:6f:53:72:f9:6c:f5:7c:9f:68:a0:03:e6:a3:18:aa:f7:9c:
         37:f3:f9:d8:2d:1b:a3:c9:27:65:be:7b:a5:71:11:f6:83:99:
         2e:b9:11:69:59:54:9d:ad:1f:94:83:eb:6a:90:92:25:18:5f:
         4e:d5:e8:4c:1f:6d:97:65:93:3d:44:36:65:87:b0:4c:bb:7d:
         02:fb:83:af:22:52:34:eb
-----BEGIN CERTIFICATE-----
MIIGTDCCBDSgAwIBAgICEAEwDQYJKoZIhvcNAQEEBQAwajELMAkGA1UEBhMCVVMx
DTALBgNVBAgMBFV0YWgxDDAKBgNVBAcMA1NMQzEaMBgGA1UECgwRQnJhbmRlbiBS
b2NrcyBMTEMxEDAOBgNVBAsMB0JyYW5kZW4xEDAOBgNVBAMMB2JyYW5kZW4wHhcN
MjMwMzIzMTYzMDEzWhcNMjQwMzIyMTYzMDEzWjBeMQswCQYDVQQGEwJVUzENMAsG
A1UECAwEVXRhaDEaMBgGA1UECgwRQnJhbmRlbiBSb2NrcyBMTEMxEDAOBgNVBAsM
B0JyYW5kZW4xEjAQBgNVBAMMCWNsaWVudE1hbjCCAiIwDQYJKoZIhvcNAQEBBQAD
ggIPADCCAgoCggIBANlLapb3gJnXWQXW8vHuXEqP/c+VS+XLnO0cdb8kzBp+MEo9
edDBTHWxv5rBbtcHyjZAcCMIFFb4urHw3+wALpF1JOcHwy4OeuyqWOIdQoUsU198
cy8SaKrDIXK7kprZ+HeLBMoNKg2OffRPGFg0OAfR7Blg77RS6wIFzmOlX1QU8Qwr
wNClgc9utJAzE6PA5m8zK0wJEyLXI6TecezwWSjEZWaXgus+EJq2JTcW738nccgd
1w21s6DHsnNkcvITRToU4FGP3Wci5uO0YMB9hQF62JzXqqXVP3vKg+UpW9NDqg/v
FaGQ54lU3B+lE9CIGAmyq7K1ql/WMcwYg5bVF8sw8CKhVkVogArJXiefdD5la3mn
K8odclT0ka8fTrkNiUZADfHxq2syBfyzA9BecMyYOLy+W+Vue5nBM79m6sYVeQlw
rmyKQJb5gODW/H7omSfdBwy94ePEBz5IRvvm3zMXsWNwUOkKcuZwoOthutrdspzC
tw5Fm2OHgsB2xe84DATkren1xI3vEoLYK8Ft+SRgGcHkQY0xJVX/+XTpJiSAOAEK
HSDHF0KwadP9IrMzK2mrLJwyJjuaIZ79lGAcHLVrXVpCrbEQHCIR8NCyy5Xl1HMm
hJz3avaRiJfwuQcTa8oeO+vEJFfREhi1/GJK/+b8WR/0DKETaR6OdAJQWRjHAgMB
AAGjggEGMIIBAjAJBgNVHRMEAjAAMCwGCWCGSAGG+EIBDQQfFh1PcGVuU1NMIEdl
bmVyYXRlZCBDZXJ0aWZpY2F0ZTAdBgNVHQ4EFgQUQkpMLdOdgRNZaxn8r4EgG+iG
Wr8wgacGA1UdIwSBnzCBnIAUjzjpOBNV9UW2sC89UnPqGQqNSX6hbqRsMGoxCzAJ
BgNVBAYTAlVTMQ0wCwYDVQQIDARVdGFoMQwwCgYDVQQHDANTTEMxGjAYBgNVBAoM
EUJyYW5kZW4gUm9ja3MgTExDMRAwDgYDVQQLDAdCcmFuZGVuMRAwDgYDVQQDDAdi
cmFuZGVughQOBZST9Jl/hRJX28hz/fOp457fGjANBgkqhkiG9w0BAQQFAAOCAgEA
M/Rj1uZZYEC19Fmu9sZOAALV6AB9L8fob1XIgUzaH41w/0NCwf+ib+P+C62LTlFQ
JT64BpNRmHf3FGdXiDUuFOhQ13NfYLiT9isgyjAVA/0Y1mmJr+nNAWdxu/2etisi
pw6O1eLAinijuIP67OUqOhZAXQAf5A5IsbhCPp+QsQSNx6OJwit/tWYQ1ldk7Ysu
1WhLky1glQ4cK+H9ViMc7AsES900fcKwn/8CTFRvAcaKWPLKh+V3sjEWAKTgXn7e
+iNug18Hx2B6mJ0OT5VM6LheI+rTrAUQGKmtlnkgsjQA5xMw8tPeFBUtlbTEXHx0
HraI7TNvniAf39m1Ht8sNMguKiKbX21TtoH800oDKbzH7whffUcDJe42eXneAuNL
vr9pZzbf15TYIzbnfITmWntq4ChAwK0ky3ZKzQpP9eMDeMeIAwjO7wjhpAwr/UZe
OEAxwpRD45BVKxMt3KzYPVFE9c+BsOcMMXSP6PuyrSzgHCceFxTiIWsGBWRpVtt9
adlovr6JscvvA7S5H7wIKF14ZZqEtod5hcWv1m2Z/3b608SU6ELPIzsbNfnXksA2
UW9Tcvls9XyfaKAD5qMYqvecN/P52C0bo8knZb57pXER9oOZLrkRaVlUna0flIPr
apCSJRhfTtXoTB9tl2WTPUQ2ZYewTLt9AvuDryJSNOs=
-----END CERTIFICATE-----
