Certificate:
    Data:
        Version: 3 (0x2)
        Serial Number: 4096 (0x1000)
        Signature Algorithm: md5WithRSAEncryption
        Issuer: C=US, ST=Utah, L=SLC, O=Branden Rocks LLC, OU=Branden, CN=branden
        Validity
            Not Before: Mar 23 16:25:37 2023 GMT
            Not After : Mar 22 16:25:37 2024 GMT
        Subject: C=US, ST=Utah, O=Branden Rocks LLC, OU=Branden, CN=serverMan
        Subject Public Key Info:
            Public Key Algorithm: rsaEncryption
                RSA Public-Key: (4096 bit)
                Modulus:
                    00:cb:38:62:e5:6f:44:f9:c0:37:48:05:b1:d8:b2:
                    8a:ea:e9:eb:d7:43:96:b3:f8:cc:a8:6b:32:e6:4d:
                    c0:09:69:c9:7a:6a:dc:e0:b1:b4:cd:68:99:4d:07:
                    1f:eb:f5:33:cb:3c:89:85:05:f9:4b:d2:e7:de:0c:
                    55:cd:a0:8d:4b:a9:df:5c:7c:ff:1a:01:22:c3:91:
                    10:2e:d6:62:52:c2:7a:0e:51:3d:a1:7b:92:2c:20:
                    6f:b7:11:3e:ad:a2:68:d4:8a:94:d6:1a:32:ea:24:
                    a7:d9:e1:2b:d4:59:5e:20:77:83:a0:10:61:97:a2:
                    e3:ff:d9:be:9c:76:62:83:62:8b:82:a7:4d:b7:74:
                    eb:6c:88:fc:7e:1c:c5:b6:3f:2c:ee:09:76:ad:ec:
                    9e:1e:2b:86:4a:ed:c8:e3:fc:a7:95:f8:b7:0d:00:
                    00:d7:75:1f:52:18:ea:13:5b:68:e3:26:6a:49:bd:
                    1b:9b:4f:28:ae:37:03:dc:9e:4e:04:96:09:2e:da:
                    f0:2f:f1:b8:e4:da:6a:b8:da:58:bf:15:57:18:92:
                    0c:1b:5c:73:00:dd:51:c5:0a:fa:77:63:67:15:2b:
                    15:f3:0d:01:8b:52:e3:a8:10:dd:c0:ef:9f:8d:fb:
                    e6:7d:77:19:a6:88:17:ee:b6:9b:2e:48:9f:22:d0:
                    1d:2c:c1:f1:4f:8b:3a:35:73:5e:23:ef:fa:b1:a4:
                    2c:fa:6b:55:6c:bc:92:08:a0:cb:c9:2e:79:93:90:
                    28:f0:47:d0:fe:49:b6:ce:93:b8:1a:cd:dc:07:ac:
                    dc:66:85:f0:3f:d9:70:99:ce:de:16:b5:4d:ea:e9:
                    03:6e:dc:8c:a4:ee:03:16:72:c2:33:31:fe:1c:65:
                    ca:91:a7:8e:dd:74:6b:73:04:d6:ea:03:d7:a9:f8:
                    0c:2e:1b:29:19:98:76:e3:db:5b:31:7e:06:69:c1:
                    23:13:6f:5f:ef:d6:7b:d5:e3:27:82:91:79:8c:b0:
                    f0:b4:c4:2c:34:d0:df:58:2c:97:f6:69:04:56:32:
                    b2:db:3c:ad:6a:eb:32:e6:d4:59:14:66:ab:cd:ec:
                    9c:02:45:ed:2a:79:32:48:f2:08:e1:9d:14:ff:5f:
                    8b:c3:6f:08:3b:59:b5:fa:68:d8:d9:e6:67:e4:cb:
                    a1:a4:d7:3d:74:88:1b:42:bc:14:be:ef:bc:31:12:
                    f9:f0:7e:d6:ea:3f:f4:a2:79:0d:2f:2d:63:32:fe:
                    c8:8d:bc:1b:17:86:2c:04:5c:d8:84:a8:14:76:01:
                    70:d2:f5:c7:9c:78:9b:3f:6f:17:b4:a9:72:a0:e4:
                    65:63:d9:0a:ec:32:92:69:4d:c1:bf:00:59:44:ad:
                    48:06:37
                Exponent: 65537 (0x10001)
        X509v3 extensions:
            X509v3 Basic Constraints: 
                CA:FALSE
            Netscape Comment: 
                OpenSSL Generated Certificate
            X509v3 Subject Key Identifier: 
                6F:17:27:C6:E8:37:2A:59:48:48:48:A2:4E:6A:2B:85:A7:59:BD:BC
            X509v3 Authority Key Identifier: 
                keyid:8F:38:E9:38:13:55:F5:45:B6:B0:2F:3D:52:73:EA:19:0A:8D:49:7E
                DirName:/C=US/ST=Utah/L=SLC/O=Branden Rocks LLC/OU=Branden/CN=branden
                serial:0E:05:94:93:F4:99:7F:85:12:57:DB:C8:73:FD:F3:A9:E3:9E:DF:1A

    Signature Algorithm: md5WithRSAEncryption
         ae:d1:b0:48:49:87:4a:8a:4e:70:d1:8f:5e:2d:a7:9f:28:d3:
         ea:ad:e4:9e:85:d5:f7:c9:5f:4a:1a:a9:46:88:76:f7:e8:e3:
         43:4e:d9:79:87:4c:4a:92:c9:a4:cf:62:54:65:1c:d9:36:c3:
         9c:5c:c2:cc:59:5f:d8:35:51:5f:58:b0:d1:e3:9e:7a:19:60:
         4e:18:b5:08:c6:69:28:5c:8d:8a:e0:96:9e:d0:49:40:12:8c:
         0f:fc:2c:48:a0:96:20:81:58:15:36:1d:7e:a7:a2:e2:df:8f:
         a1:16:ed:30:4f:00:5f:53:9a:e4:06:9d:74:24:bf:08:fa:3f:
         00:cc:93:e9:ac:0f:e1:73:ee:75:d6:2f:23:b1:70:bb:c5:e2:
         c1:da:69:c8:97:8f:dc:1f:82:07:34:d8:7f:d7:5e:13:70:45:
         3e:82:2a:75:c7:f7:ed:c2:ab:fa:16:6c:65:f4:52:54:80:5c:
         88:78:27:f7:60:1c:21:b3:7f:95:48:cc:35:4e:c9:76:e1:71:
         b9:c1:5a:57:6f:5a:d0:70:96:a1:6c:4f:8b:30:15:22:8b:7e:
         ae:b6:24:4b:4f:35:1c:77:4f:23:f8:f2:e3:9e:ee:76:c1:47:
         3f:05:90:32:5b:b8:09:5a:a7:30:16:35:91:88:39:a5:0a:a1:
         62:6e:50:bc:58:2a:dc:18:38:55:35:79:92:91:69:1c:7b:4c:
         c7:21:42:4d:d7:f4:10:55:db:2a:7c:52:5a:a7:af:d3:c5:d3:
         8f:b5:31:d7:e5:c2:7e:ff:a2:2f:06:fe:62:9b:b9:96:cd:69:
         88:df:cc:5f:b2:01:8e:b5:9b:80:05:ad:3f:da:73:e0:ca:66:
         de:4c:8e:ec:98:3f:e7:61:0e:19:e5:df:ba:9a:40:c9:4c:1d:
         ac:8c:a6:8a:2b:a8:09:1a:e0:3d:bd:4d:d7:2c:9e:51:b1:55:
         e1:6f:bd:4a:d7:72:22:14:b1:c3:16:0d:1a:b5:b3:08:ae:3a:
         c7:38:f2:a4:b4:57:65:d5:68:07:be:77:a2:43:52:2e:93:8a:
         4e:3d:4e:66:0e:ba:6b:e1:48:87:eb:6c:6d:e9:14:b7:e3:75:
         28:92:f6:91:57:3f:fa:ed:42:77:16:53:03:41:5d:c1:c2:58:
         f8:cc:5f:22:67:85:b8:c4:ec:d1:9d:3f:78:3e:cc:12:89:0a:
         0d:38:98:a5:53:f5:5f:6d:80:f6:50:68:dc:bb:aa:21:3f:1c:
         c8:38:3a:cb:06:48:e1:dd:25:33:4d:06:50:5c:e7:f4:33:23:
         d5:53:29:6d:36:93:cd:f2:3c:79:ad:11:f6:fd:29:ee:67:0d:
         68:32:23:e9:93:59:a7:8c
-----BEGIN CERTIFICATE-----
MIIGTDCCBDSgAwIBAgICEAAwDQYJKoZIhvcNAQEEBQAwajELMAkGA1UEBhMCVVMx
DTALBgNVBAgMBFV0YWgxDDAKBgNVBAcMA1NMQzEaMBgGA1UECgwRQnJhbmRlbiBS
b2NrcyBMTEMxEDAOBgNVBAsMB0JyYW5kZW4xEDAOBgNVBAMMB2JyYW5kZW4wHhcN
MjMwMzIzMTYyNTM3WhcNMjQwMzIyMTYyNTM3WjBeMQswCQYDVQQGEwJVUzENMAsG
A1UECAwEVXRhaDEaMBgGA1UECgwRQnJhbmRlbiBSb2NrcyBMTEMxEDAOBgNVBAsM
B0JyYW5kZW4xEjAQBgNVBAMMCXNlcnZlck1hbjCCAiIwDQYJKoZIhvcNAQEBBQAD
ggIPADCCAgoCggIBAMs4YuVvRPnAN0gFsdiyiurp69dDlrP4zKhrMuZNwAlpyXpq
3OCxtM1omU0HH+v1M8s8iYUF+UvS594MVc2gjUup31x8/xoBIsOREC7WYlLCeg5R
PaF7kiwgb7cRPq2iaNSKlNYaMuokp9nhK9RZXiB3g6AQYZei4//Zvpx2YoNii4Kn
Tbd062yI/H4cxbY/LO4Jdq3snh4rhkrtyOP8p5X4tw0AANd1H1IY6hNbaOMmakm9
G5tPKK43A9yeTgSWCS7a8C/xuOTaarjaWL8VVxiSDBtccwDdUcUK+ndjZxUrFfMN
AYtS46gQ3cDvn4375n13GaaIF+62my5InyLQHSzB8U+LOjVzXiPv+rGkLPprVWy8
kgigy8kueZOQKPBH0P5Jts6TuBrN3Aes3GaF8D/ZcJnO3ha1TerpA27cjKTuAxZy
wjMx/hxlypGnjt10a3ME1uoD16n4DC4bKRmYduPbWzF+BmnBIxNvX+/We9XjJ4KR
eYyw8LTELDTQ31gsl/ZpBFYysts8rWrrMubUWRRmq83snAJF7Sp5MkjyCOGdFP9f
i8NvCDtZtfpo2NnmZ+TLoaTXPXSIG0K8FL7vvDES+fB+1uo/9KJ5DS8tYzL+yI28
GxeGLARc2ISoFHYBcNL1x5x4mz9vF7SpcqDkZWPZCuwykmlNwb8AWUStSAY3AgMB
AAGjggEGMIIBAjAJBgNVHRMEAjAAMCwGCWCGSAGG+EIBDQQfFh1PcGVuU1NMIEdl
bmVyYXRlZCBDZXJ0aWZpY2F0ZTAdBgNVHQ4EFgQUbxcnxug3KllISEiiTmorhadZ
vbwwgacGA1UdIwSBnzCBnIAUjzjpOBNV9UW2sC89UnPqGQqNSX6hbqRsMGoxCzAJ
BgNVBAYTAlVTMQ0wCwYDVQQIDARVdGFoMQwwCgYDVQQHDANTTEMxGjAYBgNVBAoM
EUJyYW5kZW4gUm9ja3MgTExDMRAwDgYDVQQLDAdCcmFuZGVuMRAwDgYDVQQDDAdi
cmFuZGVughQOBZST9Jl/hRJX28hz/fOp457fGjANBgkqhkiG9w0BAQQFAAOCAgEA
rtGwSEmHSopOcNGPXi2nnyjT6q3knoXV98lfShqpRoh29+jjQ07ZeYdMSpLJpM9i
VGUc2TbDnFzCzFlf2DVRX1iw0eOeehlgThi1CMZpKFyNiuCWntBJQBKMD/wsSKCW
IIFYFTYdfqei4t+PoRbtME8AX1Oa5AaddCS/CPo/AMyT6awP4XPuddYvI7Fwu8Xi
wdppyJeP3B+CBzTYf9deE3BFPoIqdcf37cKr+hZsZfRSVIBciHgn92AcIbN/lUjM
NU7JduFxucFaV29a0HCWoWxPizAVIot+rrYkS081HHdPI/jy457udsFHPwWQMlu4
CVqnMBY1kYg5pQqhYm5QvFgq3Bg4VTV5kpFpHHtMxyFCTdf0EFXbKnxSWqev08XT
j7Ux1+XCfv+iLwb+Ypu5ls1piN/MX7IBjrWbgAWtP9pz4Mpm3kyO7Jg/52EOGeXf
uppAyUwdrIymiiuoCRrgPb1N1yyeUbFV4W+9StdyIhSxwxYNGrWzCK46xzjypLRX
ZdVoB753okNSLpOKTj1OZg66a+FIh+tsbekUt+N1KJL2kVc/+u1CdxZTA0FdwcJY
+MxfImeFuMTs0Z0/eD7MEokKDTiYpVP1X22A9lBo3LuqIT8cyDg6ywZI4d0lM00G
UFzn9DMj1VMpbTaTzfI8ea0R9v0p7mcNaDIj6ZNZp4w=
-----END CERTIFICATE-----
